target datalayout = "e-m:e-p270:32:32-p271:32:32-p272:64:64-i64:64-i128:128-f80:128-n8:16:32:64-S128"
target triple = "x86_64-pc-linux-gnu"

%struct.rusage = type { %struct.timeval, %struct.timeval, %union.anon, %union.anon.0, %union.anon.1, %union.anon.2, %union.anon.3, %union.anon.4, %union.anon.5, %union.anon.6, %union.anon.7, %union.anon.8, %union.anon.9, %union.anon.10, %union.anon.11, %union.anon.12 }
%struct.timeval = type { i64, i64 }
%union.anon = type { i64 }
%union.anon.0 = type { i64 }
%union.anon.1 = type { i64 }
%union.anon.2 = type { i64 }
%union.anon.3 = type { i64 }
%union.anon.4 = type { i64 }
%union.anon.5 = type { i64 }
%union.anon.6 = type { i64 }
%union.anon.7 = type { i64 }
%union.anon.8 = type { i64 }
%union.anon.9 = type { i64 }
%union.anon.10 = type { i64 }
%union.anon.11 = type { i64 }
%union.anon.12 = type { i64 }

@log_parser_stats = external global i8, align 1
@.str.1 = private unnamed_addr constant [26 x i8] c"PARSE ANALYSIS STATISTICS\00", align 1
@.str.2 = private unnamed_addr constant [47 x i8] c"could not determine data type of parameter $%d\00", align 1
@.str.3 = private unnamed_addr constant [11 x i8] c"postgres.c\00", align 1
@__func__.pg_analyze_and_rewrite_varparams = private unnamed_addr constant [33 x i8] c"pg_analyze_and_rewrite_varparams\00", align 1
@Save_r = internal global %struct.rusage zeroinitializer, align 8
@Save_t = internal global %struct.timeval zeroinitializer, align 8

; Function Attrs: nounwind uwtable
define dso_local void @ResetUsage() #0 {
  %1 = call i32 @getrusage(i32 noundef 0, ptr noundef @Save_r) #16
  %2 = call i32 @gettimeofday(ptr noundef @Save_t, ptr noundef null) #16
  ret void
}

; Function Attrs: nounwind uwtable
define dso_local ptr @pg_analyze_and_rewrite_varparams(ptr noundef %0, ptr noundef %1, ptr noundef %2, ptr noundef %3, ptr noundef %4) #0 {
  %6 = alloca ptr, align 8
  %7 = alloca ptr, align 8
  %8 = alloca ptr, align 8
  %9 = alloca ptr, align 8
  %10 = alloca ptr, align 8
  %11 = alloca ptr, align 8
  %12 = alloca ptr, align 8
  %13 = alloca i32, align 4
  %14 = alloca i32, align 4
  store ptr %0, ptr %6, align 8
  store ptr %1, ptr %7, align 8
  store ptr %2, ptr %8, align 8
  store ptr %3, ptr %9, align 8
  store ptr %4, ptr %10, align 8
  call void @llvm.lifetime.start.p0(i64 8, ptr %11) #16
  call void @llvm.lifetime.start.p0(i64 8, ptr %12) #16
  br label %15

15:                                               ; preds = %5
  br label %16

16:                                               ; preds = %15
  br label %17

17:                                               ; preds = %16
  %18 = load i8, ptr @log_parser_stats, align 1, !range !4, !noundef !5
  %19 = trunc i8 %18 to i1
  br i1 %19, label %20, label %21

20:                                               ; preds = %17
  call void @ResetUsage()
  br label %21

21:                                               ; preds = %20, %17
  %22 = load ptr, ptr %6, align 8
  %23 = load ptr, ptr %7, align 8
  %24 = load ptr, ptr %8, align 8
  %25 = load ptr, ptr %9, align 8
  %26 = load ptr, ptr %10, align 8
  %27 = call ptr @parse_analyze_varparams(ptr noundef %22, ptr noundef %23, ptr noundef %24, ptr noundef %25, ptr noundef %26)
  store ptr %27, ptr %11, align 8
  call void @llvm.lifetime.start.p0(i64 4, ptr %13) #16
  store i32 0, ptr %13, align 4
  br label %28

28:                                               ; preds = %61, %21
  %29 = load i32, ptr %13, align 4
  %30 = load ptr, ptr %9, align 8
  %31 = load i32, ptr %30, align 4
  %32 = icmp slt i32 %29, %31
  br i1 %32, label %34, label %33

33:                                               ; preds = %28
  call void @llvm.lifetime.end.p0(i64 4, ptr %13) #16
  br label %64

34:                                               ; preds = %28
  call void @llvm.lifetime.start.p0(i64 4, ptr %14) #16
  %35 = load ptr, ptr %8, align 8
  %36 = load ptr, ptr %35, align 8
  %37 = load i32, ptr %13, align 4
  %38 = sext i32 %37 to i64
  %39 = getelementptr inbounds i32, ptr %36, i64 %38
  %40 = load i32, ptr %39, align 4
  store i32 %40, ptr %14, align 4
  %41 = load i32, ptr %14, align 4
  %42 = icmp eq i32 %41, 0
  br i1 %42, label %46, label %43

43:                                               ; preds = %34
  %44 = load i32, ptr %14, align 4
  %45 = icmp eq i32 %44, 705
  br i1 %45, label %46, label %60

46:                                               ; preds = %43, %34
  br label %47

47:                                               ; preds = %46
  br i1 true, label %48, label %50

48:                                               ; preds = %47
  %49 = call zeroext i1 @errstart_cold(i32 noundef 21, ptr noundef null) #18
  br i1 %49, label %52, label %57

50:                                               ; preds = %47
  %51 = call zeroext i1 @errstart(i32 noundef 21, ptr noundef null)
  br i1 %51, label %52, label %57

52:                                               ; preds = %50, %48
  %53 = call i32 @errcode(i32 noundef 134611076)
  %54 = load i32, ptr %13, align 4
  %55 = add i32 %54, 1
  %56 = call i32 (ptr, ...) @errmsg(ptr noundef @.str.2, i32 noundef %55)
  call void @errfinish(ptr noundef @.str.3, i32 noundef 734, ptr noundef @__func__.pg_analyze_and_rewrite_varparams)
  br label %57

57:                                               ; preds = %52, %50, %48
  unreachable

58:                                               ; No predecessors!
  br label %59

59:                                               ; preds = %58
  br label %60

60:                                               ; preds = %59, %43
  call void @llvm.lifetime.end.p0(i64 4, ptr %14) #16
  br label %61

61:                                               ; preds = %60
  %62 = load i32, ptr %13, align 4
  %63 = add i32 %62, 1
  store i32 %63, ptr %13, align 4
  br label %28, !llvm.loop !6

64:                                               ; preds = %33
  %65 = load i8, ptr @log_parser_stats, align 1, !range !4, !noundef !5
  %66 = trunc i8 %65 to i1
  br i1 %66, label %67, label %68

67:                                               ; preds = %64
  call void @ShowUsage(ptr noundef @.str.1)
  br label %68

68:                                               ; preds = %67, %64
  %69 = load ptr, ptr %11, align 8
  %70 = call ptr @pg_rewrite_query(ptr noundef %69)
  store ptr %70, ptr %12, align 8
  br label %71

71:                                               ; preds = %68
  br label %72

72:                                               ; preds = %71
  br label %73

73:                                               ; preds = %72
  %74 = load ptr, ptr %12, align 8
  call void @llvm.lifetime.end.p0(i64 8, ptr %12) #16
  call void @llvm.lifetime.end.p0(i64 8, ptr %11) #16
  ret ptr %74
}