; Function Attrs: nounwind uwtable
define dso_local ptr @pg_analyze_and_rewrite_varparams(ptr noundef %0, ptr noundef %1, ptr noundef %2, ptr noundef %3, ptr noundef %4) local_unnamed_addr #0 {
  %6 = load i8, ptr @log_parser_stats, align 1, !range !5, !noundef !6
  %7 = trunc nuw i8 %6 to i1
  br i1 %7, label %8, label %11

8:                                                ; preds = %5
  %9 = tail call i32 @getrusage(i32 noundef 0, ptr noundef nonnull @Save_r) #22
  %10 = tail call i32 @gettimeofday(ptr noundef nonnull @Save_t, ptr noundef null) #22
  br label %11

11:                                               ; preds = %8, %5
  %12 = tail call ptr @parse_analyze_varparams(ptr noundef %0, ptr noundef %1, ptr noundef %2, ptr noundef %3, ptr noundef %4) #22
  %13 = load i32, ptr %3, align 4
  %14 = icmp sgt i32 %13, 0
  br i1 %14, label %.lr.ph, label %._crit_edge

.lr.ph:                                           ; preds = %11
  %15 = load ptr, ptr %2, align 8
  %wide.trip.count = zext nneg i32 %13 to i64
  br label %18

._crit_edge:                                      ; preds = %27, %11
  %16 = load i8, ptr @log_parser_stats, align 1, !range !5, !noundef !6
  %17 = trunc nuw i8 %16 to i1
  br i1 %17, label %28, label %29

18:                                               ; preds = %.lr.ph, %27
  %indvars.iv = phi i64 [ 0, %.lr.ph ], [ %indvars.iv.next, %27 ]
  %19 = getelementptr inbounds nuw i32, ptr %15, i64 %indvars.iv
  %20 = load i32, ptr %19, align 4
  switch i32 %20, label %27 [
    i32 705, label %21
    i32 0, label %21
  ]

21:                                               ; preds = %18, %18
  %22 = trunc nuw nsw i64 %indvars.iv to i32
  %23 = tail call zeroext i1 @errstart_cold(i32 noundef 21, ptr noundef null) #23
  tail call void @llvm.assume(i1 %23)
  %24 = tail call i32 @errcode(i32 noundef 134611076) #22
  %25 = add nuw nsw i32 %22, 1
  %26 = tail call i32 (ptr, ...) @errmsg(ptr noundef nonnull @.str.2, i32 noundef %25) #22
  tail call void @errfinish(ptr noundef nonnull @.str.3, i32 noundef 734, ptr noundef nonnull @__func__.pg_analyze_and_rewrite_varparams) #22
  unreachable

27:                                               ; preds = %18
  %indvars.iv.next = add nuw nsw i64 %indvars.iv, 1
  %exitcond.not = icmp eq i64 %indvars.iv.next, %wide.trip.count
  br i1 %exitcond.not, label %._crit_edge, label %18, !llvm.loop !9

28:                                               ; preds = %._crit_edge
  tail call void @ShowUsage(ptr noundef nonnull @.str.1)
  br label %29

29:                                               ; preds = %28, %._crit_edge
  %30 = tail call ptr @pg_rewrite_query(ptr noundef %12)
  ret ptr %30
}